; Function Attrs: mustprogress uwtable
define void @_ZN7rocksdb24PessimisticTransactionDB7TryLockEPNS_22PessimisticTransactionEjRKNSt7__cxx1112basic_stringIcSt11char_traitsIcESaIcEEEb(ptr dead_on_unwind noalias writable sret(%"class.rocksdb::Status") align 8 %0, ptr noundef nonnull align 8 dereferenceable(520) %1, ptr noundef %2, i32 noundef %3, ptr noundef nonnull align 8 dereferenceable(32) %4, i1 noundef zeroext %5) local_unnamed_addr #4 align 2 {
  %7 = getelementptr inbounds nuw i8, ptr %1, i64 248
  %8 = load ptr, ptr %7, align 8, !tbaa !219
  %9 = load ptr, ptr %1, align 8, !tbaa !26
  %10 = getelementptr inbounds nuw i8, ptr %9, i64 776
  %11 = load ptr, ptr %10, align 8
  %12 = tail call noundef ptr %11(ptr noundef nonnull align 8 dereferenceable(32) %1)
  %13 = load ptr, ptr %8, align 8, !tbaa !26
  %14 = getelementptr inbounds nuw i8, ptr %13, i64 56
  %15 = load ptr, ptr %14, align 8
  tail call void %15(ptr dead_on_unwind writable sret(%"class.rocksdb::Status") align 8 %0, ptr noundef nonnull align 8 dereferenceable(8) %8, ptr noundef %2, i32 noundef %3, ptr noundef nonnull align 8 dereferenceable(32) %4, ptr noundef %12, i1 noundef zeroext %5)
  ret void
}